(dp0
S'dark'
p1
(lp2
sS'std'
p3
(lp4
(dp5
S'type'
p6
(lp7
S'flux'
p8
aS'telluric'
p9
asS'sci'
p10
(lp11
S'T2m3wb-20171222.101316-0044'
p12
asS'name'
p13
(lp14
S'HD9051'
p15
asasS'bias'
p16
(lp17
S'T2m3wb-20171222.071321-0010'
p18
aS'T2m3wb-20171222.080030-0030'
p19
asS'arc'
p20
(lp21
S'T2m3wb-20171222.071949-0011'
p22
aS'T2m3wb-20171222.072214-0012'
p23
aS'T2m3wb-20171222.072439-0013'
p24
asS'wire'
p25
(lp26
S'T2m3wb-20171222.075014-0027'
p27
aS'T2m3wb-20171222.075122-0028'
p28
aS'T2m3wb-20171222.075230-0029'
p29
asg10
(lp30
(dp31
S'sky'
p32
(lp33
sg10
(lp34
S'T2m3wb-20171223.171900-0067'
p35
asasS'twiflat'
p36
(lp37
S'T2m3wb-20171222.090130-0031'
p38
aS'T2m3wb-20171222.090542-0032'
p39
aS'T2m3wb-20171222.090705-0033'
p40
asS'domeflat'
p41
(lp42
S'T2m3wb-20171222.073454-0017'
p43
aS'T2m3wb-20171222.073602-0018'
p44
aS'T2m3wb-20171222.073710-0019'
p45
as.